ASxxxx Linker V03.00 + NoICE + sdld,  page 1.
Hexadecimal  [32-Bits]

Area                                    Addr        Size        Decimal Bytes (Attributes)
--------------------------------        ----        ----        ------- ----- ------------
.  .ABS.                            00000000    00000000 =           0. bytes (ABS,CON)

      Value  Global                              Global Defined In Module
      -----  --------------------------------   ------------------------
     00000000  .__.ABS.                           
     00000000  l__DATA                         
     00000000  string_Init                        
     00000001  gravity                            
     00000001  string_Over                        
     00000002  string_Erase                       
     0000000B  entity_size                        cpct_keyboard
     00000050  screen_width                       
     000000C8  screen_heigth                      
     00000551  l__CODE                         
     00004000  s__CODE                         
     00004551  s__DATA                         
ASxxxx Linker V03.00 + NoICE + sdld,  page 2.
Hexadecimal  [32-Bits]

Area                                    Addr        Size        Decimal Bytes (Attributes)
--------------------------------        ----        ----        ------- ----- ------------
_CODE                               00004000    00000551 =        1361. bytes (REL,CON)

      Value  Global                              Global Defined In Module
      -----  --------------------------------   ------------------------
     00004000  phy_update                         
     00004063  show_title_screen                  
     00004094  hide_title_screen                  
     000040AD  _main                              cpct_keyboard
     000040BD  start_game                         cpct_keyboard
     00004112  man_entity_getArray                cpct_keyboard
     0000411A  man_entity_init                    cpct_keyboard
     00004125  man_entity_new                     cpct_keyboard
     00004136  man_entity_create                  cpct_keyboard
     00004142  rendersys_Wipe                     
     00004150  rendersys_init                     
     0000416D  rendersys_update                   
     000041A9  inputsys_init                      cpct_keyboard
     000041AA  inputsys_waitForInput              cpct_keyboard
     000041B7  inputsys_update                    cpct_keyboard
     0000422C  _cpct_scanKeyboard_f               cpct_keyboard
     0000422C  cpct_scanKeyboard_f_asm            cpct_keyboard
     00004296  _cpct_isKeyPressed                 cpct_keyboard
     00004296  cpct_isKeyPressed_asm              cpct_keyboard
     000042A2  cpct_drawStringM1_asm              cpct_strings
     000042C6  cpct_drawCharM1_inner_asm          cpct_strings
     00004306  cpct_char2pxM1                     cpct_strings
     00004316  cpct_drawSprite_asm                cpct_sprites
     000043B6  _cpct_keyboardStatusBuffer         cpct_keyboard
     000043C0  _cpct_isAnyKeyPressed_f            cpct_keyboard
     000043C0  cpct_isAnyKeyPressed_f_asm         cpct_keyboard
     000043DB  cpct_zx7b_decrunch_s_asm           cpct_compression
     0000441B  _cpct_waitVSYNC                    cpct_video
     0000441B  cpct_waitVSYNC_asm                 cpct_video
     00004423  _cpct_disableFirmware              cpct_firmware
     00004423  _cpct_removeInterruptHandler       cpct_firmware
     00004423  cpct_disableFirmware_asm           cpct_firmware
     00004423  cpct_removeInterruptHandler_asm    cpct_firmware
     00004433  cpct_drawSolidBox_asm              cpct_sprites
     000044DF  _cpct_mode_rom_status              cpct_firmware
     000044E0  cpct_getScreenPtr_asm              cpct_video
     000044FC  cpct_setDrawCharM1_asm             cpct_strings
     0000454D  dc_mode1_ct                        

ASxxxx Linker V03.00 + NoICE + sdld,  page 3.

Files Linked                              [ module(s) ]

obj/entity_manager.h.rel                  [  ]
obj/physics_system.rel                    [  ]
obj/game_manager.h.rel                    [ cpct_keyboard ]
obj/input_system.h.rel                    [  ]
obj/title_screen_creator.rel              [  ]
obj/main.rel                              [ cpct_keyboard ]
obj/game_manager.rel                      [ cpct_keyboard ]
obj/entity_manager.rel                    [ cpct_keyboard ]
obj/title_screen_creator.h.rel            [  ]
obj/render_system.rel                     [  ]
obj/input_system.rel                      [ cpct_keyboard ]
obj/physics_system.h.rel                  [  ]
obj/render_system.h.rel                   [  ]


Libraries Linked                          [ object file ]

/home/daniel/cpctelera/cpctelera/cpctelera.lib
                                          [ cpct_scanKeyboard_f.rel ]
/home/daniel/cpctelera/cpctelera/cpctelera.lib
                                          [ cpct_isKeyPressed.rel ]
/home/daniel/cpctelera/cpctelera/cpctelera.lib
                                          [ cpct_drawStringM1_asmbindings.re ]
/home/daniel/cpctelera/cpctelera/cpctelera.lib
                                          [ cpct_drawCharM1_inner.rel ]
/home/daniel/cpctelera/cpctelera/cpctelera.lib
                                          [ cpct_drawSprite_asmbindings.rel ]
/home/daniel/cpctelera/cpctelera/cpctelera.lib
                                          [ keyboard.rel ]
/home/daniel/cpctelera/cpctelera/cpctelera.lib
                                          [ cpct_isAnyKeyPressed_f.rel ]
/home/daniel/cpctelera/cpctelera/cpctelera.lib
                                          [ cpct_zx7b_decrunch_s_asmbindings ]
/home/daniel/cpctelera/cpctelera/cpctelera.lib
                                          [ cpct_waitVSYNC.rel ]
/home/daniel/cpctelera/cpctelera/cpctelera.lib
                                          [ cpct_removeInterruptHandler.rel ]
/home/daniel/cpctelera/cpctelera/cpctelera.lib
                                          [ cpct_drawSolidBox_asmbindings.re ]
/home/daniel/cpctelera/cpctelera/cpctelera.lib
                                          [ cpc_mode_rom_status.rel ]
/home/daniel/cpctelera/cpctelera/cpctelera.lib
                                          [ cpct_getScreenPtr_asmbindings.re ]
/home/daniel/cpctelera/cpctelera/cpctelera.lib
                                          [ cpct_setDrawCharM1_asmbindings.r ]
/home/daniel/cpctelera/cpctelera/cpctelera.lib
                                          [ cpct_dc_mode1_ct.rel ]

ASxxxx Linker V03.00 + NoICE + sdld,  page 4.

User Base Address Definitions

_CODE = 0x4000
_DATA = 0x0000

